Archive member included because of file (symbol)

/home/nxp/Desktop/linuxtest1/CMSISv1p30_LPC13xx/Debug/libCMSISv1p30_LPC13xx.a(system_LPC13xx.o)
                              ./src/cr_startup_lpc13.o (SystemInit)

Allocating common symbols
Common symbol       size              file

DeviceInfo          0x8               ./src/usbmemrom_main.o
MscDevInfo          0x24              ./src/usbmemrom_main.o

Discarded input sections

 .text          0x00000000        0x0 ./src/DiskImg.o
 .bss           0x00000000        0x0 ./src/DiskImg.o
 .text          0x00000000        0x0 ./src/cr_startup_lpc13.o
 .data          0x00000000        0x0 ./src/cr_startup_lpc13.o
 .bss           0x00000000        0x0 ./src/cr_startup_lpc13.o
 .text          0x00000000        0x0 ./src/msccallback.o
 .data          0x00000000        0x0 ./src/msccallback.o
 .bss           0x00000000        0x0 ./src/msccallback.o
 .text          0x00000000        0x0 ./src/usbdesc.o
 .data          0x00000000        0x0 ./src/usbdesc.o
 .bss           0x00000000        0x0 ./src/usbdesc.o
 .text          0x00000000        0x0 ./src/usbmemrom_main.o
 .bss           0x00000000        0x0 ./src/usbmemrom_main.o
 .text          0x00000000        0x0 /home/nxp/Desktop/linuxtest1/CMSISv1p30_LPC13xx/Debug/libCMSISv1p30_LPC13xx.a(system_LPC13xx.o)
 .data          0x00000000        0x4 /home/nxp/Desktop/linuxtest1/CMSISv1p30_LPC13xx/Debug/libCMSISv1p30_LPC13xx.a(system_LPC13xx.o)
 .bss           0x00000000        0x0 /home/nxp/Desktop/linuxtest1/CMSISv1p30_LPC13xx/Debug/libCMSISv1p30_LPC13xx.a(system_LPC13xx.o)
 .text.SystemCoreClockUpdate
                0x00000000      0x358 /home/nxp/Desktop/linuxtest1/CMSISv1p30_LPC13xx/Debug/libCMSISv1p30_LPC13xx.a(system_LPC13xx.o)

Memory Configuration

Name             Origin             Length             Attributes
MFlash32         0x00000000         0x00008000         xr
RamLoc8          0x10000180         0x00001e80         xrw
*default*        0x00000000         0xffffffff

Linker script and memory map

LOAD ./src/DiskImg.o
LOAD ./src/cr_startup_lpc13.o
LOAD ./src/msccallback.o
LOAD ./src/usbdesc.o
LOAD ./src/usbmemrom_main.o
LOAD /home/nxp/Desktop/linuxtest1/CMSISv1p30_LPC13xx/Debug/libCMSISv1p30_LPC13xx.a
START GROUP
LOAD /usr/local/LPCXpresso/tools/bin/../lib/gcc/arm-none-eabi/4.4.1/../../../../arm-none-eabi/lib/thumb2/libcr_c.a
LOAD /usr/local/LPCXpresso/tools/bin/../lib/gcc/arm-none-eabi/4.4.1/../../../../arm-none-eabi/lib/thumb2/libcr_semihost.a
LOAD /usr/local/LPCXpresso/tools/bin/../lib/gcc/arm-none-eabi/4.4.1/thumb2/libcr_eabihelpers.a
END GROUP
                0x00008000                __top_MFlash32 = 0x8000
                0x10002000                __top_RamLoc8 = 0x10002000

.text           0x00000000      0x67c
 *(.isr_vector)
 .isr_vector    0x00000000      0x124 ./src/cr_startup_lpc13.o
                0x00000000                g_pfnVectors
 *(.text*)
 .text.Reset_Handler
                0x00000124       0x78 ./src/cr_startup_lpc13.o
                0x00000124                Reset_Handler
                0x00000124                ResetISR
 .text.NMI_Handler
                0x0000019c        0x8 ./src/cr_startup_lpc13.o
                0x0000019c                NMI_Handler
 .text.HardFault_Handler
                0x000001a4        0x8 ./src/cr_startup_lpc13.o
                0x000001a4                HardFault_Handler
 .text.MemManage_Handler
                0x000001ac        0x8 ./src/cr_startup_lpc13.o
                0x000001ac                MemManage_Handler
 .text.BusFault_Handler
                0x000001b4        0x8 ./src/cr_startup_lpc13.o
                0x000001b4                BusFault_Handler
 .text.UsageFault_Handler
                0x000001bc        0x8 ./src/cr_startup_lpc13.o
                0x000001bc                UsageFault_Handler
 .text.SVCall_Handler
                0x000001c4        0x8 ./src/cr_startup_lpc13.o
                0x000001c4                SVCall_Handler
 .text.DebugMon_Handler
                0x000001cc        0x8 ./src/cr_startup_lpc13.o
                0x000001cc                DebugMon_Handler
 .text.PendSV_Handler
                0x000001d4        0x8 ./src/cr_startup_lpc13.o
                0x000001d4                PendSV_Handler
 .text.SysTick_Handler
                0x000001dc        0x8 ./src/cr_startup_lpc13.o
                0x000001dc                SysTick_Handler
 .text.IntDefaultHandler
                0x000001e4        0x8 ./src/cr_startup_lpc13.o
                0x000001e4                TIMER16_0_IRQHandler
                0x000001e4                UART_IRQHandler
                0x000001e4                TIMER32_0_IRQHandler
                0x000001e4                TIMER32_1_IRQHandler
                0x000001e4                PIOINT1_IRQHandler
                0x000001e4                SSP_IRQHandler
                0x000001e4                TIMER16_1_IRQHandler
                0x000001e4                USB_FIQHandler
                0x000001e4                ADC_IRQHandler
                0x000001e4                PIOINT2_IRQHandler
                0x000001e4                BOD_IRQHandler
                0x000001e4                WAKEUP_IRQHandler
                0x000001e4                PIOINT0_IRQHandler
                0x000001e4                I2C_IRQHandler
                0x000001e4                WDT_IRQHandler
                0x000001e4                PIOINT3_IRQHandler
                0x000001e4                FMC_IRQHandler
 .text.MSC_MemoryRead
                0x000001ec       0x48 ./src/msccallback.o
                0x000001ec                MSC_MemoryRead
 .text.MSC_MemoryWrite
                0x00000234       0x48 ./src/msccallback.o
                0x00000234                MSC_MemoryWrite
 .text.__WFI    0x0000027c        0xc ./src/usbmemrom_main.o
 .text.main     0x00000288      0x14c ./src/usbmemrom_main.o
                0x00000288                main
 .text.USB_IRQHandler
                0x000003d4       0x18 ./src/usbmemrom_main.o
                0x000003d4                USB_IRQHandler
 .text.__NOP    0x000003ec        0xc /home/nxp/Desktop/linuxtest1/CMSISv1p30_LPC13xx/Debug/libCMSISv1p30_LPC13xx.a(system_LPC13xx.o)
 .text.SystemInit
                0x000003f8      0x1f8 /home/nxp/Desktop/linuxtest1/CMSISv1p30_LPC13xx/Debug/libCMSISv1p30_LPC13xx.a(system_LPC13xx.o)
                0x000003f8                SystemInit
 *(.rodata*)
 .rodata        0x000005f0       0x1c ./src/msccallback.o
                0x000005f0                InquiryStr
 .rodata        0x0000060c       0x70 ./src/usbdesc.o
                0x0000060c                USB_StringDescriptor

.glue_7         0x0000067c        0x0
 .glue_7        0x00000000        0x0 linker stubs

.glue_7t        0x0000067c        0x0
 .glue_7t       0x00000000        0x0 linker stubs

.vfp11_veneer   0x0000067c        0x0
 .vfp11_veneer  0x00000000        0x0 linker stubs

.v4_bx          0x0000067c        0x0
 .v4_bx         0x00000000        0x0 linker stubs

.ARM.extab
 *(.ARM.extab* .gnu.linkonce.armextab.*)
                0x0000067c                __exidx_start = .

.ARM.exidx
 *(.ARM.exidx* .gnu.linkonce.armexidx.*)
                0x0000067c                __exidx_end = .
                0x0000067c                _etext = .

.data           0x10000180     0x1a04 load address 0x0000067c
                0x10000180                _data = .
 *(vtable)
 *(.data*)
 .data          0x10000180     0x1a00 ./src/DiskImg.o
                0x10000180                DiskImage
 .data          0x10001b80        0x4 ./src/usbmemrom_main.o
                0x10001b80                rom
                0x10001b84                _edata = .

.bss            0x10001b84       0x2c load address 0x00002080
                0x10001b84                _bss = .
 *(.bss*)
 *(COMMON)
 COMMON         0x10001b84       0x2c ./src/usbmemrom_main.o
                0x10001b84                DeviceInfo
                0x10001b8c                MscDevInfo
                0x10001bb0                _ebss = .

.cr_heap        0x10001bb0        0x0
                0x10001bb0                end = .
                0x10001bb0                _pvHeapStart = .
                0x10002000                _vRamTop = __top_RamLoc8
                0x10001ff0                _vStackTop = (_vRamTop - 0x10)
OUTPUT(usbmsd_rom.axf elf32-littlearm)

.debug_abbrev   0x00000000      0x4e7
 .debug_abbrev  0x00000000       0x4d ./src/DiskImg.o
 .debug_abbrev  0x0000004d       0xdf ./src/cr_startup_lpc13.o
 .debug_abbrev  0x0000012c       0xed ./src/msccallback.o
 .debug_abbrev  0x00000219       0x84 ./src/usbdesc.o
 .debug_abbrev  0x0000029d      0x162 ./src/usbmemrom_main.o
 .debug_abbrev  0x000003ff       0xe8 /home/nxp/Desktop/linuxtest1/CMSISv1p30_LPC13xx/Debug/libCMSISv1p30_LPC13xx.a(system_LPC13xx.o)

.debug_info     0x00000000     0x112f
 .debug_info    0x00000000       0x57 ./src/DiskImg.o
 .debug_info    0x00000057      0x1ed ./src/cr_startup_lpc13.o
 .debug_info    0x00000244      0x18b ./src/msccallback.o
 .debug_info    0x000003cf       0xb8 ./src/usbdesc.o
 .debug_info    0x00000487      0x75b ./src/usbmemrom_main.o
 .debug_info    0x00000be2      0x54d /home/nxp/Desktop/linuxtest1/CMSISv1p30_LPC13xx/Debug/libCMSISv1p30_LPC13xx.a(system_LPC13xx.o)

.debug_line     0x00000000      0x88a
 .debug_line    0x00000000       0x6a ./src/DiskImg.o
 .debug_line    0x0000006a      0x1b7 ./src/cr_startup_lpc13.o
 .debug_line    0x00000221      0x196 ./src/msccallback.o
 .debug_line    0x000003b7      0x151 ./src/usbdesc.o
 .debug_line    0x00000508      0x1e6 ./src/usbmemrom_main.o
 .debug_line    0x000006ee      0x19c /home/nxp/Desktop/linuxtest1/CMSISv1p30_LPC13xx/Debug/libCMSISv1p30_LPC13xx.a(system_LPC13xx.o)

.debug_macinfo  0x00000000    0x180c2
 .debug_macinfo
                0x00000000      0xd26 ./src/DiskImg.o
 .debug_macinfo
                0x00000d26     0x15a1 ./src/cr_startup_lpc13.o
 .debug_macinfo
                0x000022c7     0x584a ./src/msccallback.o
 .debug_macinfo
                0x00007b11     0x594a ./src/usbdesc.o
 .debug_macinfo
                0x0000d45b     0x5ae9 ./src/usbmemrom_main.o
 .debug_macinfo
                0x00012f44     0x517e /home/nxp/Desktop/linuxtest1/CMSISv1p30_LPC13xx/Debug/libCMSISv1p30_LPC13xx.a(system_LPC13xx.o)

.debug_pubnames
                0x00000000      0x222
 .debug_pubnames
                0x00000000       0x20 ./src/DiskImg.o
 .debug_pubnames
                0x00000020       0xec ./src/cr_startup_lpc13.o
 .debug_pubnames
                0x0000010c       0x48 ./src/msccallback.o
 .debug_pubnames
                0x00000154       0x2b ./src/usbdesc.o
 .debug_pubnames
                0x0000017f       0x54 ./src/usbmemrom_main.o
 .debug_pubnames
                0x000001d3       0x4f /home/nxp/Desktop/linuxtest1/CMSISv1p30_LPC13xx/Debug/libCMSISv1p30_LPC13xx.a(system_LPC13xx.o)

.debug_str      0x00000000      0x698
 .debug_str     0x00000000       0x63 ./src/DiskImg.o
 .debug_str     0x00000063      0x14a ./src/cr_startup_lpc13.o
                                0x1c6 (size before relaxing)
 .debug_str     0x000001ad       0x60 ./src/msccallback.o
                                0x133 (size before relaxing)
 .debug_str     0x0000020d       0x26 ./src/usbdesc.o
                                 0xf9 (size before relaxing)
 .debug_str     0x00000233      0x3d8 ./src/usbmemrom_main.o
                                0x4e9 (size before relaxing)
 .debug_str     0x0000060b       0x8d /home/nxp/Desktop/linuxtest1/CMSISv1p30_LPC13xx/Debug/libCMSISv1p30_LPC13xx.a(system_LPC13xx.o)
                                0x3e1 (size before relaxing)

.comment        0x00000000      0x102
 .comment       0x00000000       0x2b ./src/DiskImg.o
 .comment       0x0000002b       0x2b ./src/cr_startup_lpc13.o
 .comment       0x00000056       0x2b ./src/msccallback.o
 .comment       0x00000081       0x2b ./src/usbdesc.o
 .comment       0x000000ac       0x2b ./src/usbmemrom_main.o
 .comment       0x000000d7       0x2b /home/nxp/Desktop/linuxtest1/CMSISv1p30_LPC13xx/Debug/libCMSISv1p30_LPC13xx.a(system_LPC13xx.o)

.ARM.attributes
                0x00000000       0x31
 .ARM.attributes
                0x00000000       0x31 ./src/DiskImg.o
 .ARM.attributes
                0x00000031       0x31 ./src/cr_startup_lpc13.o
 .ARM.attributes
                0x00000062       0x31 ./src/msccallback.o
 .ARM.attributes
                0x00000093       0x31 ./src/usbdesc.o
 .ARM.attributes
                0x000000c4       0x31 ./src/usbmemrom_main.o
 .ARM.attributes
                0x000000f5       0x31 /home/nxp/Desktop/linuxtest1/CMSISv1p30_LPC13xx/Debug/libCMSISv1p30_LPC13xx.a(system_LPC13xx.o)

.debug_loc      0x00000000      0x379
 .debug_loc     0x00000000      0x1e5 ./src/cr_startup_lpc13.o
 .debug_loc     0x000001e5       0x6e ./src/msccallback.o
 .debug_loc     0x00000253       0x8d ./src/usbmemrom_main.o
 .debug_loc     0x000002e0       0x99 /home/nxp/Desktop/linuxtest1/CMSISv1p30_LPC13xx/Debug/libCMSISv1p30_LPC13xx.a(system_LPC13xx.o)

.debug_aranges  0x00000000       0xf8
 .debug_aranges
                0x00000000       0x70 ./src/cr_startup_lpc13.o
 .debug_aranges
                0x00000070       0x28 ./src/msccallback.o
 .debug_aranges
                0x00000098       0x30 ./src/usbmemrom_main.o
 .debug_aranges
                0x000000c8       0x30 /home/nxp/Desktop/linuxtest1/CMSISv1p30_LPC13xx/Debug/libCMSISv1p30_LPC13xx.a(system_LPC13xx.o)

.debug_ranges   0x00000000       0xd8
 .debug_ranges  0x00000000       0x68 ./src/cr_startup_lpc13.o
 .debug_ranges  0x00000068       0x20 ./src/msccallback.o
 .debug_ranges  0x00000088       0x28 ./src/usbmemrom_main.o
 .debug_ranges  0x000000b0       0x28 /home/nxp/Desktop/linuxtest1/CMSISv1p30_LPC13xx/Debug/libCMSISv1p30_LPC13xx.a(system_LPC13xx.o)

.debug_frame    0x00000000      0x230
 .debug_frame   0x00000000      0x120 ./src/cr_startup_lpc13.o
 .debug_frame   0x00000120       0x48 ./src/msccallback.o
 .debug_frame   0x00000168       0x64 ./src/usbmemrom_main.o
 .debug_frame   0x000001cc       0x64 /home/nxp/Desktop/linuxtest1/CMSISv1p30_LPC13xx/Debug/libCMSISv1p30_LPC13xx.a(system_LPC13xx.o)
