Archive member included because of file (symbol)

C:\Documents and Settings\nxp21346\Desktop\LPCXpresso_Fix_Examples\LPCE\CMSISv1p30_LPC17xx\Debug\libCMSISv1p30_LPC17xx.a(system_LPC17xx.o)
                              ./src/cr_startup_lpc17.o (SystemInit)
C:\Documents and Settings\nxp21346\Desktop\LPCXpresso_Fix_Examples\LPCE\lib_small_printf_m3\Lib\liblib_small_printf_m3.a(small_printf_nofloat.o)
                              ./src/debug.o (printf_format_nofloat)
C:\Documents and Settings\nxp21346\Desktop\LPCXpresso_Fix_Examples\LPCE\lib_small_printf_m3\Lib\liblib_small_printf_m3.a(small_printf_support.o)
                              C:\Documents and Settings\nxp21346\Desktop\LPCXpresso_Fix_Examples\LPCE\lib_small_printf_m3\Lib\liblib_small_printf_m3.a(small_printf_nofloat.o) (prints)
C:\Documents and Settings\nxp21346\Desktop\LPCXpresso_Fix_Examples\LPCE\lib_small_printf_m3\Lib\liblib_small_printf_m3.a(small_utils.o)
                              ./src/debug.o (small_strlen)
c:/nxp/lpcxpresso_3.3_beta3/tools/bin/../lib/gcc/arm-none-eabi/4.3.3/../../../../arm-none-eabi/lib/thumb2\libcr_c.a(__init_alloc.o)
                              ./src/stack.o (__heaps)
c:/nxp/lpcxpresso_3.3_beta3/tools/bin/../lib/gcc/arm-none-eabi/4.3.3/../../../../arm-none-eabi/lib/thumb2\libcr_c.a(__weak__main.o)
                              ./src/cr_startup_lpc17.o (__main)
c:/nxp/lpcxpresso_3.3_beta3/tools/bin/../lib/gcc/arm-none-eabi/4.3.3/../../../../arm-none-eabi/lib/thumb2\libcr_c.a(ctype.o)
                              c:/nxp/lpcxpresso_3.3_beta3/tools/bin/../lib/gcc/arm-none-eabi/4.3.3/../../../../arm-none-eabi/lib/thumb2\libcr_c.a(__weak__main.o) (_ctype_init)
c:/nxp/lpcxpresso_3.3_beta3/tools/bin/../lib/gcc/arm-none-eabi/4.3.3/../../../../arm-none-eabi/lib/thumb2\libcr_c.a(memcpy.o)
                              ./src/main.o (memcpy)
c:/nxp/lpcxpresso_3.3_beta3/tools/bin/../lib/gcc/arm-none-eabi/4.3.3/../../../../arm-none-eabi/lib/thumb2\libcr_semihost.a(cr__read.o)
                              ./src/debug.o (__read)
c:/nxp/lpcxpresso_3.3_beta3/tools/bin/../lib/gcc/arm-none-eabi/4.3.3/../../../../arm-none-eabi/lib/thumb2\libcr_semihost.a(cr__write.o)
                              ./src/debug.o (__write)
c:/nxp/lpcxpresso_3.3_beta3/tools/bin/../lib/gcc/arm-none-eabi/4.3.3/thumb2\libcr_eabihelpers.a(double.o)
                              C:\Documents and Settings\nxp21346\Desktop\LPCXpresso_Fix_Examples\LPCE\lib_small_printf_m3\Lib\liblib_small_printf_m3.a(small_utils.o) (__aeabi_dsub)

Allocating common symbols
Common symbol       size              file

g_bs                0x82c             ./src/main.o
__heaps             0x4               c:/nxp/lpcxpresso_3.3_beta3/tools/bin/../lib/gcc/arm-none-eabi/4.3.3/../../../../arm-none-eabi/lib/thumb2\libcr_c.a(__init_alloc.o)
__end_of_heap       0x4               c:/nxp/lpcxpresso_3.3_beta3/tools/bin/../lib/gcc/arm-none-eabi/4.3.3/../../../../arm-none-eabi/lib/thumb2\libcr_c.a(__init_alloc.o)

Discarded input sections

 .text          0x00000000        0x0 ./src/cr_startup_lpc17.o
 .data          0x00000000        0x0 ./src/cr_startup_lpc17.o
 .bss           0x00000000        0x0 ./src/cr_startup_lpc17.o
 .text          0x00000000        0x0 ./src/debug.o
 .data          0x00000000        0x0 ./src/debug.o
 .bss           0x00000000        0x0 ./src/debug.o
 .text._debug_getstr
                0x00000000        0x0 ./src/debug.o
 .text._debug_puts
                0x00000000        0x0 ./src/debug.o
 .bss.debug_read_buf
                0x00000000        0x0 ./src/debug.o
 .text          0x00000000        0x0 ./src/main.o
 .data          0x00000000        0x0 ./src/main.o
 .bss           0x00000000        0x0 ./src/main.o
 .bss.i.2237    0x00000000        0x0 ./src/main.o
 .text          0x00000000        0x0 ./src/stack.o
 .data          0x00000000        0x0 ./src/stack.o
 .bss           0x00000000        0x0 ./src/stack.o
 .text          0x00000000        0x0 C:\Documents and Settings\nxp21346\Desktop\LPCXpresso_Fix_Examples\LPCE\CMSISv1p30_LPC17xx\Debug\libCMSISv1p30_LPC17xx.a(system_LPC17xx.o)
 .data          0x00000000        0x0 C:\Documents and Settings\nxp21346\Desktop\LPCXpresso_Fix_Examples\LPCE\CMSISv1p30_LPC17xx\Debug\libCMSISv1p30_LPC17xx.a(system_LPC17xx.o)
 .bss           0x00000000        0x0 C:\Documents and Settings\nxp21346\Desktop\LPCXpresso_Fix_Examples\LPCE\CMSISv1p30_LPC17xx\Debug\libCMSISv1p30_LPC17xx.a(system_LPC17xx.o)
 .text.SystemCoreClockUpdate
                0x00000000        0x0 C:\Documents and Settings\nxp21346\Desktop\LPCXpresso_Fix_Examples\LPCE\CMSISv1p30_LPC17xx\Debug\libCMSISv1p30_LPC17xx.a(system_LPC17xx.o)
 .text          0x00000000        0x0 C:\Documents and Settings\nxp21346\Desktop\LPCXpresso_Fix_Examples\LPCE\lib_small_printf_m3\Lib\liblib_small_printf_m3.a(small_printf_nofloat.o)
 .data          0x00000000        0x0 C:\Documents and Settings\nxp21346\Desktop\LPCXpresso_Fix_Examples\LPCE\lib_small_printf_m3\Lib\liblib_small_printf_m3.a(small_printf_nofloat.o)
 .bss           0x00000000        0x0 C:\Documents and Settings\nxp21346\Desktop\LPCXpresso_Fix_Examples\LPCE\lib_small_printf_m3\Lib\liblib_small_printf_m3.a(small_printf_nofloat.o)
 .text.nsprintf
                0x00000000        0x0 C:\Documents and Settings\nxp21346\Desktop\LPCXpresso_Fix_Examples\LPCE\lib_small_printf_m3\Lib\liblib_small_printf_m3.a(small_printf_nofloat.o)
 .text.func_printf_nofloat
                0x00000000        0x0 C:\Documents and Settings\nxp21346\Desktop\LPCXpresso_Fix_Examples\LPCE\lib_small_printf_m3\Lib\liblib_small_printf_m3.a(small_printf_nofloat.o)
 .text          0x00000000        0x0 C:\Documents and Settings\nxp21346\Desktop\LPCXpresso_Fix_Examples\LPCE\lib_small_printf_m3\Lib\liblib_small_printf_m3.a(small_printf_support.o)
 .data          0x00000000        0x0 C:\Documents and Settings\nxp21346\Desktop\LPCXpresso_Fix_Examples\LPCE\lib_small_printf_m3\Lib\liblib_small_printf_m3.a(small_printf_support.o)
 .bss           0x00000000        0x0 C:\Documents and Settings\nxp21346\Desktop\LPCXpresso_Fix_Examples\LPCE\lib_small_printf_m3\Lib\liblib_small_printf_m3.a(small_printf_support.o)
 .text.nsprintf_write_init
                0x00000000        0x0 C:\Documents and Settings\nxp21346\Desktop\LPCXpresso_Fix_Examples\LPCE\lib_small_printf_m3\Lib\liblib_small_printf_m3.a(small_printf_support.o)
 .text.nsprintf_write
                0x00000000        0x0 C:\Documents and Settings\nxp21346\Desktop\LPCXpresso_Fix_Examples\LPCE\lib_small_printf_m3\Lib\liblib_small_printf_m3.a(small_printf_support.o)
 .bss.nsprintf_buffer_index
                0x00000000        0x0 C:\Documents and Settings\nxp21346\Desktop\LPCXpresso_Fix_Examples\LPCE\lib_small_printf_m3\Lib\liblib_small_printf_m3.a(small_printf_support.o)
 .bss.nsprintf_buffer
                0x00000000        0x0 C:\Documents and Settings\nxp21346\Desktop\LPCXpresso_Fix_Examples\LPCE\lib_small_printf_m3\Lib\liblib_small_printf_m3.a(small_printf_support.o)
 .bss.nsprintf_buffer_length
                0x00000000        0x0 C:\Documents and Settings\nxp21346\Desktop\LPCXpresso_Fix_Examples\LPCE\lib_small_printf_m3\Lib\liblib_small_printf_m3.a(small_printf_support.o)
 .text          0x00000000        0x0 C:\Documents and Settings\nxp21346\Desktop\LPCXpresso_Fix_Examples\LPCE\lib_small_printf_m3\Lib\liblib_small_printf_m3.a(small_utils.o)
 .data          0x00000000        0x0 C:\Documents and Settings\nxp21346\Desktop\LPCXpresso_Fix_Examples\LPCE\lib_small_printf_m3\Lib\liblib_small_printf_m3.a(small_utils.o)
 .bss           0x00000000        0x0 C:\Documents and Settings\nxp21346\Desktop\LPCXpresso_Fix_Examples\LPCE\lib_small_printf_m3\Lib\liblib_small_printf_m3.a(small_utils.o)
 .text.small_strlen
                0x00000000        0x0 C:\Documents and Settings\nxp21346\Desktop\LPCXpresso_Fix_Examples\LPCE\lib_small_printf_m3\Lib\liblib_small_printf_m3.a(small_utils.o)
 .text.small_strcmp
                0x00000000        0x0 C:\Documents and Settings\nxp21346\Desktop\LPCXpresso_Fix_Examples\LPCE\lib_small_printf_m3\Lib\liblib_small_printf_m3.a(small_utils.o)
 .text.small_stricmp
                0x00000000        0x0 C:\Documents and Settings\nxp21346\Desktop\LPCXpresso_Fix_Examples\LPCE\lib_small_printf_m3\Lib\liblib_small_printf_m3.a(small_utils.o)
 .text.small_strim
                0x00000000        0x0 C:\Documents and Settings\nxp21346\Desktop\LPCXpresso_Fix_Examples\LPCE\lib_small_printf_m3\Lib\liblib_small_printf_m3.a(small_utils.o)
 .text.gethex   0x00000000        0x0 C:\Documents and Settings\nxp21346\Desktop\LPCXpresso_Fix_Examples\LPCE\lib_small_printf_m3\Lib\liblib_small_printf_m3.a(small_utils.o)
 .text.small_fmodf
                0x00000000        0x0 C:\Documents and Settings\nxp21346\Desktop\LPCXpresso_Fix_Examples\LPCE\lib_small_printf_m3\Lib\liblib_small_printf_m3.a(small_utils.o)
 .text          0x00000000        0x0 c:/nxp/lpcxpresso_3.3_beta3/tools/bin/../lib/gcc/arm-none-eabi/4.3.3/../../../../arm-none-eabi/lib/thumb2\libcr_c.a(__init_alloc.o)
 .data          0x00000000        0x0 c:/nxp/lpcxpresso_3.3_beta3/tools/bin/../lib/gcc/arm-none-eabi/4.3.3/../../../../arm-none-eabi/lib/thumb2\libcr_c.a(__init_alloc.o)
 .bss           0x00000000        0x0 c:/nxp/lpcxpresso_3.3_beta3/tools/bin/../lib/gcc/arm-none-eabi/4.3.3/../../../../arm-none-eabi/lib/thumb2\libcr_c.a(__init_alloc.o)
 .text._start_module__init_alloc
                0x00000000        0x0 c:/nxp/lpcxpresso_3.3_beta3/tools/bin/../lib/gcc/arm-none-eabi/4.3.3/../../../../arm-none-eabi/lib/thumb2\libcr_c.a(__init_alloc.o)
 .text._end_module__init_alloc
                0x00000000        0x0 c:/nxp/lpcxpresso_3.3_beta3/tools/bin/../lib/gcc/arm-none-eabi/4.3.3/../../../../arm-none-eabi/lib/thumb2\libcr_c.a(__init_alloc.o)
 .text          0x00000000        0x0 c:/nxp/lpcxpresso_3.3_beta3/tools/bin/../lib/gcc/arm-none-eabi/4.3.3/../../../../arm-none-eabi/lib/thumb2\libcr_c.a(__weak__main.o)
 .data          0x00000000        0x0 c:/nxp/lpcxpresso_3.3_beta3/tools/bin/../lib/gcc/arm-none-eabi/4.3.3/../../../../arm-none-eabi/lib/thumb2\libcr_c.a(__weak__main.o)
 .bss           0x00000000        0x0 c:/nxp/lpcxpresso_3.3_beta3/tools/bin/../lib/gcc/arm-none-eabi/4.3.3/../../../../arm-none-eabi/lib/thumb2\libcr_c.a(__weak__main.o)
 .bss           0x00000000        0x0 c:/nxp/lpcxpresso_3.3_beta3/tools/bin/../lib/gcc/arm-none-eabi/4.3.3/../../../../arm-none-eabi/lib/thumb2\libcr_c.a(ctype.o)
 .text          0x00000000        0x0 c:/nxp/lpcxpresso_3.3_beta3/tools/bin/../lib/gcc/arm-none-eabi/4.3.3/../../../../arm-none-eabi/lib/thumb2\libcr_c.a(memcpy.o)
 .data          0x00000000        0x0 c:/nxp/lpcxpresso_3.3_beta3/tools/bin/../lib/gcc/arm-none-eabi/4.3.3/../../../../arm-none-eabi/lib/thumb2\libcr_c.a(memcpy.o)
 .bss           0x00000000        0x0 c:/nxp/lpcxpresso_3.3_beta3/tools/bin/../lib/gcc/arm-none-eabi/4.3.3/../../../../arm-none-eabi/lib/thumb2\libcr_c.a(memcpy.o)
 .text._start_module_memcpy
                0x00000000        0x0 c:/nxp/lpcxpresso_3.3_beta3/tools/bin/../lib/gcc/arm-none-eabi/4.3.3/../../../../arm-none-eabi/lib/thumb2\libcr_c.a(memcpy.o)
 .text._end_module_memcpy
                0x00000000        0x0 c:/nxp/lpcxpresso_3.3_beta3/tools/bin/../lib/gcc/arm-none-eabi/4.3.3/../../../../arm-none-eabi/lib/thumb2\libcr_c.a(memcpy.o)
 .text          0x00000000        0x0 c:/nxp/lpcxpresso_3.3_beta3/tools/bin/../lib/gcc/arm-none-eabi/4.3.3/../../../../arm-none-eabi/lib/thumb2\libcr_semihost.a(cr__read.o)
 .data          0x00000000        0x0 c:/nxp/lpcxpresso_3.3_beta3/tools/bin/../lib/gcc/arm-none-eabi/4.3.3/../../../../arm-none-eabi/lib/thumb2\libcr_semihost.a(cr__read.o)
 .bss           0x00000000        0x0 c:/nxp/lpcxpresso_3.3_beta3/tools/bin/../lib/gcc/arm-none-eabi/4.3.3/../../../../arm-none-eabi/lib/thumb2\libcr_semihost.a(cr__read.o)
 .data          0x00000000        0x0 c:/nxp/lpcxpresso_3.3_beta3/tools/bin/../lib/gcc/arm-none-eabi/4.3.3/../../../../arm-none-eabi/lib/thumb2\libcr_semihost.a(cr__write.o)
 .bss           0x00000000        0x0 c:/nxp/lpcxpresso_3.3_beta3/tools/bin/../lib/gcc/arm-none-eabi/4.3.3/../../../../arm-none-eabi/lib/thumb2\libcr_semihost.a(cr__write.o)
 .text          0x00000000        0x0 c:/nxp/lpcxpresso_3.3_beta3/tools/bin/../lib/gcc/arm-none-eabi/4.3.3/thumb2\libcr_eabihelpers.a(double.o)
 .data          0x00000000        0x0 c:/nxp/lpcxpresso_3.3_beta3/tools/bin/../lib/gcc/arm-none-eabi/4.3.3/thumb2\libcr_eabihelpers.a(double.o)
 .bss           0x00000000        0x0 c:/nxp/lpcxpresso_3.3_beta3/tools/bin/../lib/gcc/arm-none-eabi/4.3.3/thumb2\libcr_eabihelpers.a(double.o)
 .text.__aeabi_dmul
                0x00000000        0x0 c:/nxp/lpcxpresso_3.3_beta3/tools/bin/../lib/gcc/arm-none-eabi/4.3.3/thumb2\libcr_eabihelpers.a(double.o)
 .text.__aeabi_ddiv
                0x00000000        0x0 c:/nxp/lpcxpresso_3.3_beta3/tools/bin/../lib/gcc/arm-none-eabi/4.3.3/thumb2\libcr_eabihelpers.a(double.o)
 .text.__aeabi_dsub
                0x00000000        0x0 c:/nxp/lpcxpresso_3.3_beta3/tools/bin/../lib/gcc/arm-none-eabi/4.3.3/thumb2\libcr_eabihelpers.a(double.o)
 .text.__aeabi_dadd
                0x00000000        0x0 c:/nxp/lpcxpresso_3.3_beta3/tools/bin/../lib/gcc/arm-none-eabi/4.3.3/thumb2\libcr_eabihelpers.a(double.o)
 .text.__aeabi_drsub
                0x00000000        0x0 c:/nxp/lpcxpresso_3.3_beta3/tools/bin/../lib/gcc/arm-none-eabi/4.3.3/thumb2\libcr_eabihelpers.a(double.o)
 .text.__aeabi_dneg
                0x00000000        0x0 c:/nxp/lpcxpresso_3.3_beta3/tools/bin/../lib/gcc/arm-none-eabi/4.3.3/thumb2\libcr_eabihelpers.a(double.o)
 .text.__aeabi_d2f
                0x00000000        0x0 c:/nxp/lpcxpresso_3.3_beta3/tools/bin/../lib/gcc/arm-none-eabi/4.3.3/thumb2\libcr_eabihelpers.a(double.o)
 .text.__aeabi_d2iz
                0x00000000        0x0 c:/nxp/lpcxpresso_3.3_beta3/tools/bin/../lib/gcc/arm-none-eabi/4.3.3/thumb2\libcr_eabihelpers.a(double.o)
 .text.__aeabi_d2uiz
                0x00000000        0x0 c:/nxp/lpcxpresso_3.3_beta3/tools/bin/../lib/gcc/arm-none-eabi/4.3.3/thumb2\libcr_eabihelpers.a(double.o)
 .text.__aeabi_d2lz
                0x00000000        0x0 c:/nxp/lpcxpresso_3.3_beta3/tools/bin/../lib/gcc/arm-none-eabi/4.3.3/thumb2\libcr_eabihelpers.a(double.o)
 .text.__aeabi_d2ulz
                0x00000000        0x0 c:/nxp/lpcxpresso_3.3_beta3/tools/bin/../lib/gcc/arm-none-eabi/4.3.3/thumb2\libcr_eabihelpers.a(double.o)
 .text.__bhs_ui2d
                0x00000000        0x0 c:/nxp/lpcxpresso_3.3_beta3/tools/bin/../lib/gcc/arm-none-eabi/4.3.3/thumb2\libcr_eabihelpers.a(double.o)
 .text.__bhs_ul2d
                0x00000000        0x0 c:/nxp/lpcxpresso_3.3_beta3/tools/bin/../lib/gcc/arm-none-eabi/4.3.3/thumb2\libcr_eabihelpers.a(double.o)
 .text.__aeabi_dcmpeq
                0x00000000        0x0 c:/nxp/lpcxpresso_3.3_beta3/tools/bin/../lib/gcc/arm-none-eabi/4.3.3/thumb2\libcr_eabihelpers.a(double.o)
 .text.__aeabi_dcmplt
                0x00000000        0x0 c:/nxp/lpcxpresso_3.3_beta3/tools/bin/../lib/gcc/arm-none-eabi/4.3.3/thumb2\libcr_eabihelpers.a(double.o)
 .text.__aeabi_dcmpgt
                0x00000000        0x0 c:/nxp/lpcxpresso_3.3_beta3/tools/bin/../lib/gcc/arm-none-eabi/4.3.3/thumb2\libcr_eabihelpers.a(double.o)
 .text.__aeabi_dcmple
                0x00000000        0x0 c:/nxp/lpcxpresso_3.3_beta3/tools/bin/../lib/gcc/arm-none-eabi/4.3.3/thumb2\libcr_eabihelpers.a(double.o)
 .text.__aeabi_dcmpge
                0x00000000        0x0 c:/nxp/lpcxpresso_3.3_beta3/tools/bin/../lib/gcc/arm-none-eabi/4.3.3/thumb2\libcr_eabihelpers.a(double.o)
 .text.__aeabi_dcmpun
                0x00000000        0x0 c:/nxp/lpcxpresso_3.3_beta3/tools/bin/../lib/gcc/arm-none-eabi/4.3.3/thumb2\libcr_eabihelpers.a(double.o)
 .text.__aeabi_ui2d
                0x00000000        0x0 c:/nxp/lpcxpresso_3.3_beta3/tools/bin/../lib/gcc/arm-none-eabi/4.3.3/thumb2\libcr_eabihelpers.a(double.o)
 .text.__aeabi_i2d
                0x00000000        0x0 c:/nxp/lpcxpresso_3.3_beta3/tools/bin/../lib/gcc/arm-none-eabi/4.3.3/thumb2\libcr_eabihelpers.a(double.o)
 .text.__aeabi_l2d
                0x00000000        0x0 c:/nxp/lpcxpresso_3.3_beta3/tools/bin/../lib/gcc/arm-none-eabi/4.3.3/thumb2\libcr_eabihelpers.a(double.o)
 .text.__aeabi_ul2d
                0x00000000        0x0 c:/nxp/lpcxpresso_3.3_beta3/tools/bin/../lib/gcc/arm-none-eabi/4.3.3/thumb2\libcr_eabihelpers.a(double.o)

Memory Configuration

Name             Origin             Length             Attributes
MFlash512        0x00000000         0x00080000         xr
RamLoc32         0x10000000         0x00008000         xrw
RamAHB32         0x2007c000         0x00008000         xrw
CANAccFilterRAM  0x40038000         0x00000800         xrw
*default*        0x00000000         0xffffffff

Linker script and memory map

LOAD ./src/cr_startup_lpc17.o
LOAD ./src/debug.o
LOAD ./src/main.o
LOAD ./src/stack.o
LOAD C:\Documents and Settings\nxp21346\Desktop\LPCXpresso_Fix_Examples\LPCE\CMSISv1p30_LPC17xx\Debug\libCMSISv1p30_LPC17xx.a
LOAD C:\Documents and Settings\nxp21346\Desktop\LPCXpresso_Fix_Examples\LPCE\lib_small_printf_m3\Lib\liblib_small_printf_m3.a
START GROUP
LOAD c:/nxp/lpcxpresso_3.3_beta3/tools/bin/../lib/gcc/arm-none-eabi/4.3.3/../../../../arm-none-eabi/lib/thumb2\libcr_c.a
LOAD c:/nxp/lpcxpresso_3.3_beta3/tools/bin/../lib/gcc/arm-none-eabi/4.3.3/../../../../arm-none-eabi/lib/thumb2\libcr_semihost.a
LOAD c:/nxp/lpcxpresso_3.3_beta3/tools/bin/../lib/gcc/arm-none-eabi/4.3.3/thumb2\libcr_eabihelpers.a
END GROUP
                0x00080000                __top_MFlash512 = 0x80000
                0x10008000                __top_RamLoc32 = 0x10008000
                0x20084000                __top_RamAHB32 = 0x20084000
                0x40038800                __top_CANAccFilterRAM = 0x40038800

.text           0x00000000      0xfb7
 *(.isr_vector)
 .isr_vector    0x00000000       0xcc ./src/cr_startup_lpc17.o
                0x00000000                g_pfnVectors
 *(.text*)
 .text.ResetISR
                0x000000cc       0x6c ./src/cr_startup_lpc17.o
                0x000000cc                ResetISR
 .text.NMI_Handler
                0x00000138        0x8 ./src/cr_startup_lpc17.o
                0x00000138                NMI_Handler
 .text.HardFault_Handler
                0x00000140        0x8 ./src/cr_startup_lpc17.o
                0x00000140                HardFault_Handler
 .text.MemManage_Handler
                0x00000148        0x8 ./src/cr_startup_lpc17.o
                0x00000148                MemManage_Handler
 .text.BusFault_Handler
                0x00000150        0x8 ./src/cr_startup_lpc17.o
                0x00000150                BusFault_Handler
 .text.UsageFault_Handler
                0x00000158        0x8 ./src/cr_startup_lpc17.o
                0x00000158                UsageFault_Handler
 .text.SVCall_Handler
                0x00000160        0x8 ./src/cr_startup_lpc17.o
                0x00000160                SVCall_Handler
 .text.DebugMon_Handler
                0x00000168        0x8 ./src/cr_startup_lpc17.o
                0x00000168                DebugMon_Handler
 .text.PendSV_Handler
                0x00000170        0x8 ./src/cr_startup_lpc17.o
                0x00000170                PendSV_Handler
 .text.SysTick_Handler
                0x00000178        0x8 ./src/cr_startup_lpc17.o
                0x00000178                SysTick_Handler
 .text.IntDefaultHandler
                0x00000180        0x8 ./src/cr_startup_lpc17.o
                0x00000180                TIMER2_IRQHandler
                0x00000180                RIT_IRQHandler
                0x00000180                I2C0_IRQHandler
                0x00000180                USBActivity_IRQHandler
                0x00000180                PWM1_IRQHandler
                0x00000180                I2C1_IRQHandler
                0x00000180                EINT2_IRQHandler
                0x00000180                UART1_IRQHandler
                0x00000180                EINT3_IRQHandler
                0x00000180                CANActivity_IRQHandler
                0x00000180                TIMER3_IRQHandler
                0x00000180                UART0_IRQHandler
                0x00000180                IntDefaultHandler
                0x00000180                PLL0_IRQHandler
                0x00000180                CAN_IRQHandler
                0x00000180                PLL1_IRQHandler
                0x00000180                SSP0_IRQHandler
                0x00000180                I2S_IRQHandler
                0x00000180                I2C2_IRQHandler
                0x00000180                RTC_IRQHandler
                0x00000180                TIMER0_IRQHandler
                0x00000180                SPI_IRQHandler
                0x00000180                EINT1_IRQHandler
                0x00000180                TIMER1_IRQHandler
                0x00000180                UART2_IRQHandler
                0x00000180                ADC_IRQHandler
                0x00000180                SSP1_IRQHandler
                0x00000180                USB_IRQHandler
                0x00000180                BOD_IRQHandler
                0x00000180                WDT_IRQHandler
                0x00000180                QEI_IRQHandler
                0x00000180                EINT0_IRQHandler
                0x00000180                DMA_IRQHandler
                0x00000180                UART3_IRQHandler
                0x00000180                MCPWM_IRQHandler
                0x00000180                ENET_IRQHandler
 .text._debug_printf_flush
                0x00000188      0x114 ./src/debug.o
                0x00000188                __CR_SEMIHOST
                0x00000188                _debug_printf_flush
 .text._debug_putchar
                0x0000029c       0xe4 ./src/debug.o
                0x0000029c                _debug_putchar
 .text._debug_printf
                0x00000380       0x2c ./src/debug.o
                0x00000380                _debug_printf
 .text.callme   0x000003ac       0xa0 ./src/main.o
                0x000003ac                callme
 .text.main     0x0000044c       0xc8 ./src/main.o
                0x0000044c                main
 .text.StackHeapInit
                0x00000514       0x3c ./src/stack.o
                0x00000514                StackHeapInit
 .text.StackHeapFree
                0x00000550       0x68 ./src/stack.o
                0x00000550                StackHeapFree
 .text.StackHeapMinFree
                0x000005b8       0xb4 ./src/stack.o
                0x000005b8                StackHeapMinFree
 .text.SystemInit
                0x0000066c      0x224 C:\Documents and Settings\nxp21346\Desktop\LPCXpresso_Fix_Examples\LPCE\CMSISv1p30_LPC17xx\Debug\libCMSISv1p30_LPC17xx.a(system_LPC17xx.o)
                0x0000066c                SystemInit
 .text.printf_format_nofloat
                0x00000890      0x17c C:\Documents and Settings\nxp21346\Desktop\LPCXpresso_Fix_Examples\LPCE\lib_small_printf_m3\Lib\liblib_small_printf_m3.a(small_printf_nofloat.o)
                0x00000890                printf_format_nofloat
 .text.prints   0x00000a0c       0x70 C:\Documents and Settings\nxp21346\Desktop\LPCXpresso_Fix_Examples\LPCE\lib_small_printf_m3\Lib\liblib_small_printf_m3.a(small_printf_support.o)
                0x00000a0c                prints
 .text.printi   0x00000a7c       0xa0 C:\Documents and Settings\nxp21346\Desktop\LPCXpresso_Fix_Examples\LPCE\lib_small_printf_m3\Lib\liblib_small_printf_m3.a(small_printf_support.o)
                0x00000a7c                printi
 .text._init_alloc
                0x00000b1c       0x18 c:/nxp/lpcxpresso_3.3_beta3/tools/bin/../lib/gcc/arm-none-eabi/4.3.3/../../../../arm-none-eabi/lib/thumb2\libcr_c.a(__init_alloc.o)
                0x00000b1c                _init_alloc
 .text.__weak_main
                0x00000b34       0x10 c:/nxp/lpcxpresso_3.3_beta3/tools/bin/../lib/gcc/arm-none-eabi/4.3.3/../../../../arm-none-eabi/lib/thumb2\libcr_c.a(__weak__main.o)
                0x00000b34                __main
                0x00000b34                __weak_main
 .text          0x00000b44      0x36c c:/nxp/lpcxpresso_3.3_beta3/tools/bin/../lib/gcc/arm-none-eabi/4.3.3/../../../../arm-none-eabi/lib/thumb2\libcr_c.a(ctype.o)
                0x00000b44                _start_module_ctype
                0x00000c18                islower
                0x00000d08                tolower
                0x00000c68                ispunct
                0x00000c90                isspace
                0x00000ea4                _end_module_ctype
                0x00000ce0                isxdigit
                0x00000e20                _ctype_init
                0x00000cb8                isupper
                0x00000b78                isalpha
                0x00000bf0                isgraph
                0x00000b50                isalnum
                0x00000c40                isprint
                0x00000d80                _set_ctype_8859
                0x00000bc8                isdigit
                0x00000ba0                iscntrl
                0x00000d44                toupper
 .text.memcpy   0x00000eb0       0x3c c:/nxp/lpcxpresso_3.3_beta3/tools/bin/../lib/gcc/arm-none-eabi/4.3.3/../../../../arm-none-eabi/lib/thumb2\libcr_c.a(memcpy.o)
                0x00000eb0                memcpy
 .text          0x00000eec       0x20 c:/nxp/lpcxpresso_3.3_beta3/tools/bin/../lib/gcc/arm-none-eabi/4.3.3/../../../../arm-none-eabi/lib/thumb2\libcr_semihost.a(cr__write.o)
                0x00000eec                __write
 *(.rodata*)
 .rodata        0x00000f0c       0xa0 ./src/main.o
 .rodata.stackinitconst
                0x00000fac        0x4 ./src/stack.o
                0x00000fac                stackinitconst
 .rodata.str1.1
                0x00000fb0        0x7 C:\Documents and Settings\nxp21346\Desktop\LPCXpresso_Fix_Examples\LPCE\lib_small_printf_m3\Lib\liblib_small_printf_m3.a(small_printf_nofloat.o)

.glue_7         0x00000fb8        0x0 load address 0x00000fb7
 .glue_7        0x00000000        0x0 linker stubs

.glue_7t        0x00000fb8        0x0 load address 0x00000fb7
 .glue_7t       0x00000000        0x0 linker stubs

.vfp11_veneer   0x00000fb8        0x0 load address 0x00000fb7
 .vfp11_veneer  0x00000000        0x0 linker stubs

.v4_bx          0x00000fb8        0x0 load address 0x00000fb7
 .v4_bx         0x00000000        0x0 linker stubs

.ARM.extab
 *(.ARM.extab* .gnu.linkonce.armextab.*)
                0x00000fb8                __exidx_start = .

.ARM.exidx
 *(.ARM.exidx* .gnu.linkonce.armexidx.*)
                0x00000fb8                __exidx_end = .
                0x00000fb8                _etext = .

.data           0x10000000      0x204 load address 0x00000fb7
                0x10000000                _data = .
 *(vtable)
 *(.data*)
 .data          0x10000000      0x204 c:/nxp/lpcxpresso_3.3_beta3/tools/bin/../lib/gcc/arm-none-eabi/4.3.3/../../../../arm-none-eabi/lib/thumb2\libcr_c.a(ctype.o)
                0x10000000                __ctype
                0x10000204                _edata = .

.bss            0x10000204      0x88c load address 0x000011bb
                0x10000204                _bss = .
 *(.bss*)
 .bss.debug_write_buf
                0x10000204       0x52 ./src/debug.o
 .bss.debug_buf_read_index
                0x10000256        0x1 ./src/debug.o
 .bss.debug_buf_write_index
                0x10000257        0x1 ./src/debug.o
 .bss.callcount
                0x10000258        0x4 ./src/main.o
 *(COMMON)
 COMMON         0x1000025c      0x82c ./src/main.o
                0x1000025c                g_bs
 COMMON         0x10000a88        0x8 c:/nxp/lpcxpresso_3.3_beta3/tools/bin/../lib/gcc/arm-none-eabi/4.3.3/../../../../arm-none-eabi/lib/thumb2\libcr_c.a(__init_alloc.o)
                0x10000a88                __heaps
                0x10000a8c                __end_of_heap
                0x10000a90                _ebss = .

.cr_heap        0x10000a90        0x0 load address 0x000011bb
                0x10000a90                end = .
                0x10000a90                _pvHeapStart = .
                0x10008000                _vRamTop = __top_RamLoc32
                0x10007ff0                _vStackTop = (_vRamTop - 0x10)
OUTPUT(StackUsage_1768.axf elf32-littlearm)

.debug_abbrev   0x00000000      0x7f2
 .debug_abbrev  0x00000000       0xbd ./src/cr_startup_lpc17.o
 .debug_abbrev  0x000000bd      0x141 ./src/debug.o
 .debug_abbrev  0x000001fe      0x114 ./src/main.o
 .debug_abbrev  0x00000312       0x94 ./src/stack.o
 .debug_abbrev  0x000003a6       0xc6 C:\Documents and Settings\nxp21346\Desktop\LPCXpresso_Fix_Examples\LPCE\CMSISv1p30_LPC17xx\Debug\libCMSISv1p30_LPC17xx.a(system_LPC17xx.o)
 .debug_abbrev  0x0000046c      0x18f C:\Documents and Settings\nxp21346\Desktop\LPCXpresso_Fix_Examples\LPCE\lib_small_printf_m3\Lib\liblib_small_printf_m3.a(small_printf_nofloat.o)
 .debug_abbrev  0x000005fb      0x127 C:\Documents and Settings\nxp21346\Desktop\LPCXpresso_Fix_Examples\LPCE\lib_small_printf_m3\Lib\liblib_small_printf_m3.a(small_printf_support.o)
 .debug_abbrev  0x00000722       0xd0 C:\Documents and Settings\nxp21346\Desktop\LPCXpresso_Fix_Examples\LPCE\lib_small_printf_m3\Lib\liblib_small_printf_m3.a(small_utils.o)

.debug_info     0x00000000     0x1147
 .debug_info    0x00000000      0x1ec ./src/cr_startup_lpc17.o
 .debug_info    0x000001ec      0x298 ./src/debug.o
 .debug_info    0x00000484      0x180 ./src/main.o
 .debug_info    0x00000604      0x141 ./src/stack.o
 .debug_info    0x00000745      0x334 C:\Documents and Settings\nxp21346\Desktop\LPCXpresso_Fix_Examples\LPCE\CMSISv1p30_LPC17xx\Debug\libCMSISv1p30_LPC17xx.a(system_LPC17xx.o)
 .debug_info    0x00000a79      0x24b C:\Documents and Settings\nxp21346\Desktop\LPCXpresso_Fix_Examples\LPCE\lib_small_printf_m3\Lib\liblib_small_printf_m3.a(small_printf_nofloat.o)
 .debug_info    0x00000cc4      0x2c2 C:\Documents and Settings\nxp21346\Desktop\LPCXpresso_Fix_Examples\LPCE\lib_small_printf_m3\Lib\liblib_small_printf_m3.a(small_printf_support.o)
 .debug_info    0x00000f86      0x1c1 C:\Documents and Settings\nxp21346\Desktop\LPCXpresso_Fix_Examples\LPCE\lib_small_printf_m3\Lib\liblib_small_printf_m3.a(small_utils.o)

.debug_line     0x00000000     0x1807
 .debug_line    0x00000000      0x382 ./src/cr_startup_lpc17.o
 .debug_line    0x00000382      0x447 ./src/debug.o
 .debug_line    0x000007c9      0x3f0 ./src/main.o
 .debug_line    0x00000bb9       0x7c ./src/stack.o
 .debug_line    0x00000c35      0x329 C:\Documents and Settings\nxp21346\Desktop\LPCXpresso_Fix_Examples\LPCE\CMSISv1p30_LPC17xx\Debug\libCMSISv1p30_LPC17xx.a(system_LPC17xx.o)
 .debug_line    0x00000f5e      0x3ca C:\Documents and Settings\nxp21346\Desktop\LPCXpresso_Fix_Examples\LPCE\lib_small_printf_m3\Lib\liblib_small_printf_m3.a(small_printf_nofloat.o)
 .debug_line    0x00001328      0x3b5 C:\Documents and Settings\nxp21346\Desktop\LPCXpresso_Fix_Examples\LPCE\lib_small_printf_m3\Lib\liblib_small_printf_m3.a(small_printf_support.o)
 .debug_line    0x000016dd      0x12a C:\Documents and Settings\nxp21346\Desktop\LPCXpresso_Fix_Examples\LPCE\lib_small_printf_m3\Lib\liblib_small_printf_m3.a(small_utils.o)

.debug_macinfo  0x00000000    0x1d8ad
 .debug_macinfo
                0x00000000     0x2694 ./src/cr_startup_lpc17.o
 .debug_macinfo
                0x00002694     0x6dbb ./src/debug.o
 .debug_macinfo
                0x0000944f     0x6e23 ./src/main.o
 .debug_macinfo
                0x00010272      0xc30 ./src/stack.o
 .debug_macinfo
                0x00010ea2     0x6d59 C:\Documents and Settings\nxp21346\Desktop\LPCXpresso_Fix_Examples\LPCE\CMSISv1p30_LPC17xx\Debug\libCMSISv1p30_LPC17xx.a(system_LPC17xx.o)
 .debug_macinfo
                0x00017bfb     0x27fb C:\Documents and Settings\nxp21346\Desktop\LPCXpresso_Fix_Examples\LPCE\lib_small_printf_m3\Lib\liblib_small_printf_m3.a(small_printf_nofloat.o)
 .debug_macinfo
                0x0001a3f6     0x280a C:\Documents and Settings\nxp21346\Desktop\LPCXpresso_Fix_Examples\LPCE\lib_small_printf_m3\Lib\liblib_small_printf_m3.a(small_printf_support.o)
 .debug_macinfo
                0x0001cc00      0xcad C:\Documents and Settings\nxp21346\Desktop\LPCXpresso_Fix_Examples\LPCE\lib_small_printf_m3\Lib\liblib_small_printf_m3.a(small_utils.o)

.debug_frame    0x00000000      0x47c
 .debug_frame   0x00000000      0x120 ./src/cr_startup_lpc17.o
 .debug_frame   0x00000120       0xb8 ./src/debug.o
 .debug_frame   0x000001d8       0x68 ./src/main.o
 .debug_frame   0x00000240       0x64 ./src/stack.o
 .debug_frame   0x000002a4       0x40 C:\Documents and Settings\nxp21346\Desktop\LPCXpresso_Fix_Examples\LPCE\CMSISv1p30_LPC17xx\Debug\libCMSISv1p30_LPC17xx.a(system_LPC17xx.o)
 .debug_frame   0x000002e4       0x78 C:\Documents and Settings\nxp21346\Desktop\LPCXpresso_Fix_Examples\LPCE\lib_small_printf_m3\Lib\liblib_small_printf_m3.a(small_printf_nofloat.o)
 .debug_frame   0x0000035c       0x84 C:\Documents and Settings\nxp21346\Desktop\LPCXpresso_Fix_Examples\LPCE\lib_small_printf_m3\Lib\liblib_small_printf_m3.a(small_printf_support.o)
 .debug_frame   0x000003e0       0x9c C:\Documents and Settings\nxp21346\Desktop\LPCXpresso_Fix_Examples\LPCE\lib_small_printf_m3\Lib\liblib_small_printf_m3.a(small_utils.o)

.debug_loc      0x00000000      0xc92
 .debug_loc     0x00000000      0x1e5 ./src/cr_startup_lpc17.o
 .debug_loc     0x000001e5      0x11f ./src/debug.o
 .debug_loc     0x00000304       0x96 ./src/main.o
 .debug_loc     0x0000039a       0xa5 ./src/stack.o
 .debug_loc     0x0000043f       0x56 C:\Documents and Settings\nxp21346\Desktop\LPCXpresso_Fix_Examples\LPCE\CMSISv1p30_LPC17xx\Debug\libCMSISv1p30_LPC17xx.a(system_LPC17xx.o)
 .debug_loc     0x00000495      0x208 C:\Documents and Settings\nxp21346\Desktop\LPCXpresso_Fix_Examples\LPCE\lib_small_printf_m3\Lib\liblib_small_printf_m3.a(small_printf_nofloat.o)
 .debug_loc     0x0000069d      0x36e C:\Documents and Settings\nxp21346\Desktop\LPCXpresso_Fix_Examples\LPCE\lib_small_printf_m3\Lib\liblib_small_printf_m3.a(small_printf_support.o)
 .debug_loc     0x00000a0b      0x287 C:\Documents and Settings\nxp21346\Desktop\LPCXpresso_Fix_Examples\LPCE\lib_small_printf_m3\Lib\liblib_small_printf_m3.a(small_utils.o)

.debug_pubnames
                0x00000000      0x35f
 .debug_pubnames
                0x00000000       0xfd ./src/cr_startup_lpc17.o
 .debug_pubnames
                0x000000fd       0x71 ./src/debug.o
 .debug_pubnames
                0x0000016e       0x2f ./src/main.o
 .debug_pubnames
                0x0000019d       0x5e ./src/stack.o
 .debug_pubnames
                0x000001fb       0x4f C:\Documents and Settings\nxp21346\Desktop\LPCXpresso_Fix_Examples\LPCE\CMSISv1p30_LPC17xx\Debug\libCMSISv1p30_LPC17xx.a(system_LPC17xx.o)
 .debug_pubnames
                0x0000024a       0x51 C:\Documents and Settings\nxp21346\Desktop\LPCXpresso_Fix_Examples\LPCE\lib_small_printf_m3\Lib\liblib_small_printf_m3.a(small_printf_nofloat.o)
 .debug_pubnames
                0x0000029b       0x53 C:\Documents and Settings\nxp21346\Desktop\LPCXpresso_Fix_Examples\LPCE\lib_small_printf_m3\Lib\liblib_small_printf_m3.a(small_printf_support.o)
 .debug_pubnames
                0x000002ee       0x71 C:\Documents and Settings\nxp21346\Desktop\LPCXpresso_Fix_Examples\LPCE\lib_small_printf_m3\Lib\liblib_small_printf_m3.a(small_utils.o)

.debug_aranges  0x00000000      0x1e0
 .debug_aranges
                0x00000000       0x70 ./src/cr_startup_lpc17.o
 .debug_aranges
                0x00000070       0x40 ./src/debug.o
 .debug_aranges
                0x000000b0       0x28 ./src/main.o
 .debug_aranges
                0x000000d8       0x30 ./src/stack.o
 .debug_aranges
                0x00000108       0x28 C:\Documents and Settings\nxp21346\Desktop\LPCXpresso_Fix_Examples\LPCE\CMSISv1p30_LPC17xx\Debug\libCMSISv1p30_LPC17xx.a(system_LPC17xx.o)
 .debug_aranges
                0x00000130       0x30 C:\Documents and Settings\nxp21346\Desktop\LPCXpresso_Fix_Examples\LPCE\lib_small_printf_m3\Lib\liblib_small_printf_m3.a(small_printf_nofloat.o)
 .debug_aranges
                0x00000160       0x38 C:\Documents and Settings\nxp21346\Desktop\LPCXpresso_Fix_Examples\LPCE\lib_small_printf_m3\Lib\liblib_small_printf_m3.a(small_printf_support.o)
 .debug_aranges
                0x00000198       0x48 C:\Documents and Settings\nxp21346\Desktop\LPCXpresso_Fix_Examples\LPCE\lib_small_printf_m3\Lib\liblib_small_printf_m3.a(small_utils.o)

.debug_ranges   0x00000000      0x1a0
 .debug_ranges  0x00000000       0x68 ./src/cr_startup_lpc17.o
 .debug_ranges  0x00000068       0x38 ./src/debug.o
 .debug_ranges  0x000000a0       0x20 ./src/main.o
 .debug_ranges  0x000000c0       0x28 ./src/stack.o
 .debug_ranges  0x000000e8       0x20 C:\Documents and Settings\nxp21346\Desktop\LPCXpresso_Fix_Examples\LPCE\CMSISv1p30_LPC17xx\Debug\libCMSISv1p30_LPC17xx.a(system_LPC17xx.o)
 .debug_ranges  0x00000108       0x28 C:\Documents and Settings\nxp21346\Desktop\LPCXpresso_Fix_Examples\LPCE\lib_small_printf_m3\Lib\liblib_small_printf_m3.a(small_printf_nofloat.o)
 .debug_ranges  0x00000130       0x30 C:\Documents and Settings\nxp21346\Desktop\LPCXpresso_Fix_Examples\LPCE\lib_small_printf_m3\Lib\liblib_small_printf_m3.a(small_printf_support.o)
 .debug_ranges  0x00000160       0x40 C:\Documents and Settings\nxp21346\Desktop\LPCXpresso_Fix_Examples\LPCE\lib_small_printf_m3\Lib\liblib_small_printf_m3.a(small_utils.o)

.debug_str      0x00000000      0x762
 .debug_str     0x00000000      0x1b9 ./src/cr_startup_lpc17.o
                                0x1ed (size before relaxing)
 .debug_str     0x000001b9      0x10d ./src/debug.o
                                0x1fd (size before relaxing)
 .debug_str     0x000002c6       0x5b ./src/main.o
                                0x162 (size before relaxing)
 .debug_str     0x00000321       0x7a ./src/stack.o
                                0x11d (size before relaxing)
 .debug_str     0x0000039b      0x1cc C:\Documents and Settings\nxp21346\Desktop\LPCXpresso_Fix_Examples\LPCE\CMSISv1p30_LPC17xx\Debug\libCMSISv1p30_LPC17xx.a(system_LPC17xx.o)
                                0x267 (size before relaxing)
 .debug_str     0x00000567       0xe2 C:\Documents and Settings\nxp21346\Desktop\LPCXpresso_Fix_Examples\LPCE\lib_small_printf_m3\Lib\liblib_small_printf_m3.a(small_printf_nofloat.o)
                                0x1b7 (size before relaxing)
 .debug_str     0x00000649       0xad C:\Documents and Settings\nxp21346\Desktop\LPCXpresso_Fix_Examples\LPCE\lib_small_printf_m3\Lib\liblib_small_printf_m3.a(small_printf_support.o)
                                0x1d4 (size before relaxing)
 .debug_str     0x000006f6       0x6c C:\Documents and Settings\nxp21346\Desktop\LPCXpresso_Fix_Examples\LPCE\lib_small_printf_m3\Lib\liblib_small_printf_m3.a(small_utils.o)
                                0x104 (size before relaxing)

.comment        0x00000000      0x284
 .comment       0x00000000       0x2b ./src/cr_startup_lpc17.o
 .comment       0x0000002b       0x2b ./src/debug.o
 .comment       0x00000056       0x2b ./src/main.o
 .comment       0x00000081       0x2b ./src/stack.o
 .comment       0x000000ac       0x2b C:\Documents and Settings\nxp21346\Desktop\LPCXpresso_Fix_Examples\LPCE\CMSISv1p30_LPC17xx\Debug\libCMSISv1p30_LPC17xx.a(system_LPC17xx.o)
 .comment       0x000000d7       0x2b C:\Documents and Settings\nxp21346\Desktop\LPCXpresso_Fix_Examples\LPCE\lib_small_printf_m3\Lib\liblib_small_printf_m3.a(small_printf_nofloat.o)
 .comment       0x00000102       0x2b C:\Documents and Settings\nxp21346\Desktop\LPCXpresso_Fix_Examples\LPCE\lib_small_printf_m3\Lib\liblib_small_printf_m3.a(small_printf_support.o)
 .comment       0x0000012d       0x2b C:\Documents and Settings\nxp21346\Desktop\LPCXpresso_Fix_Examples\LPCE\lib_small_printf_m3\Lib\liblib_small_printf_m3.a(small_utils.o)
 .comment       0x00000158       0x2b c:/nxp/lpcxpresso_3.3_beta3/tools/bin/../lib/gcc/arm-none-eabi/4.3.3/../../../../arm-none-eabi/lib/thumb2\libcr_c.a(__init_alloc.o)
 .comment       0x00000183       0x2b c:/nxp/lpcxpresso_3.3_beta3/tools/bin/../lib/gcc/arm-none-eabi/4.3.3/../../../../arm-none-eabi/lib/thumb2\libcr_c.a(__weak__main.o)
 .comment       0x000001ae       0x2b c:/nxp/lpcxpresso_3.3_beta3/tools/bin/../lib/gcc/arm-none-eabi/4.3.3/../../../../arm-none-eabi/lib/thumb2\libcr_c.a(ctype.o)
 .comment       0x000001d9       0x2b c:/nxp/lpcxpresso_3.3_beta3/tools/bin/../lib/gcc/arm-none-eabi/4.3.3/../../../../arm-none-eabi/lib/thumb2\libcr_c.a(memcpy.o)
 .comment       0x00000204       0x2b c:/nxp/lpcxpresso_3.3_beta3/tools/bin/../lib/gcc/arm-none-eabi/4.3.3/../../../../arm-none-eabi/lib/thumb2\libcr_semihost.a(cr__read.o)
 .comment       0x0000022f       0x2b c:/nxp/lpcxpresso_3.3_beta3/tools/bin/../lib/gcc/arm-none-eabi/4.3.3/../../../../arm-none-eabi/lib/thumb2\libcr_semihost.a(cr__write.o)
 .comment       0x0000025a       0x2a c:/nxp/lpcxpresso_3.3_beta3/tools/bin/../lib/gcc/arm-none-eabi/4.3.3/thumb2\libcr_eabihelpers.a(double.o)

.ARM.attributes
                0x00000000       0x31
 .ARM.attributes
                0x00000000       0x31 ./src/cr_startup_lpc17.o
 .ARM.attributes
                0x00000031       0x31 ./src/debug.o
 .ARM.attributes
                0x00000062       0x31 ./src/main.o
 .ARM.attributes
                0x00000093       0x31 ./src/stack.o
 .ARM.attributes
                0x000000c4       0x31 C:\Documents and Settings\nxp21346\Desktop\LPCXpresso_Fix_Examples\LPCE\CMSISv1p30_LPC17xx\Debug\libCMSISv1p30_LPC17xx.a(system_LPC17xx.o)
 .ARM.attributes
                0x000000f5       0x31 C:\Documents and Settings\nxp21346\Desktop\LPCXpresso_Fix_Examples\LPCE\lib_small_printf_m3\Lib\liblib_small_printf_m3.a(small_printf_nofloat.o)
 .ARM.attributes
                0x00000126       0x31 C:\Documents and Settings\nxp21346\Desktop\LPCXpresso_Fix_Examples\LPCE\lib_small_printf_m3\Lib\liblib_small_printf_m3.a(small_printf_support.o)
 .ARM.attributes
                0x00000157       0x31 C:\Documents and Settings\nxp21346\Desktop\LPCXpresso_Fix_Examples\LPCE\lib_small_printf_m3\Lib\liblib_small_printf_m3.a(small_utils.o)
 .ARM.attributes
                0x00000188       0x31 c:/nxp/lpcxpresso_3.3_beta3/tools/bin/../lib/gcc/arm-none-eabi/4.3.3/../../../../arm-none-eabi/lib/thumb2\libcr_c.a(__init_alloc.o)
 .ARM.attributes
                0x000001b9       0x31 c:/nxp/lpcxpresso_3.3_beta3/tools/bin/../lib/gcc/arm-none-eabi/4.3.3/../../../../arm-none-eabi/lib/thumb2\libcr_c.a(__weak__main.o)
 .ARM.attributes
                0x000001ea       0x31 c:/nxp/lpcxpresso_3.3_beta3/tools/bin/../lib/gcc/arm-none-eabi/4.3.3/../../../../arm-none-eabi/lib/thumb2\libcr_c.a(ctype.o)
 .ARM.attributes
                0x0000021b       0x31 c:/nxp/lpcxpresso_3.3_beta3/tools/bin/../lib/gcc/arm-none-eabi/4.3.3/../../../../arm-none-eabi/lib/thumb2\libcr_c.a(memcpy.o)
 .ARM.attributes
                0x0000024c       0x31 c:/nxp/lpcxpresso_3.3_beta3/tools/bin/../lib/gcc/arm-none-eabi/4.3.3/../../../../arm-none-eabi/lib/thumb2\libcr_semihost.a(cr__read.o)
 .ARM.attributes
                0x0000027d       0x31 c:/nxp/lpcxpresso_3.3_beta3/tools/bin/../lib/gcc/arm-none-eabi/4.3.3/../../../../arm-none-eabi/lib/thumb2\libcr_semihost.a(cr__write.o)
 .ARM.attributes
                0x000002ae       0x31 c:/nxp/lpcxpresso_3.3_beta3/tools/bin/../lib/gcc/arm-none-eabi/4.3.3/thumb2\libcr_eabihelpers.a(double.o)
